target datalayout = "e-m:e-p270:32:32-p271:32:32-p272:64:64-i64:64-i128:128-f80:128-n8:16:32:64-S128"
target triple = "x86_64-pc-linux-gnu"

%"class.icu_77::number::impl::Grouper" = type { i16, i16, i16, i32 }
%"class.icu_77::UObject" = type { ptr }
%"class.icu_77::UnicodeString" = type { %"class.icu_77::Replaceable", %"union.icu_77::UnicodeString::StackBufferOrFields" }
%"class.icu_77::Replaceable" = type { %"class.icu_77::UObject" }
%"union.icu_77::UnicodeString::StackBufferOrFields" = type { %struct.anon.2, [32 x i8] }
%struct.anon.2 = type { i16, i32, i32, ptr }
%"struct.icu_77::number::impl::ParsedPatternInfo" = type <{ %"class.icu_77::number::impl::AffixPatternProvider", %"class.icu_77::UnicodeString", %"struct.icu_77::number::impl::ParsedSubpatternInfo", %"struct.icu_77::number::impl::ParsedSubpatternInfo", %"struct.icu_77::number::impl::ParsedPatternInfo::ParserState", ptr, i8, [7 x i8] }>
%"class.icu_77::number::impl::AffixPatternProvider" = type { ptr }
%"struct.icu_77::number::impl::ParsedSubpatternInfo" = type { i64, i32, i32, i32, i32, i32, i32, i32, i32, i8, i32, i8, i32, %"class.icu_77::number::impl::DecimalQuantity", i8, i32, i8, i8, i8, i8, i8, i8, %"struct.icu_77::number::impl::Endpoints", %"struct.icu_77::number::impl::Endpoints", %"struct.icu_77::number::impl::Endpoints" }
%"class.icu_77::number::impl::DecimalQuantity" = type <{ %"class.icu_77::IFixedDecimal", i8, [3 x i8], i32, i32, i8, i8, [2 x i8], double, i32, i32, i32, i32, %union.anon, i8, i8, [6 x i8] }>
%"class.icu_77::IFixedDecimal" = type { ptr }
%union.anon = type { %struct.anon.6 }
%struct.anon.6 = type { ptr, i32 }
%"struct.icu_77::number::impl::Endpoints" = type { i32, i32 }
%"struct.icu_77::number::impl::ParsedPatternInfo::ParserState" = type <{ ptr, i32, [4 x i8] }>

; Function Attrs: mustprogress uwtable
define void @_ZN6icu_776number4impl7Grouper13setLocaleDataERKNS1_17ParsedPatternInfoERKNS_6LocaleE(ptr noundef nonnull align 4 dereferenceable(12) %0, ptr noundef nonnull align 8 dereferenceable(433) %1, ptr noundef nonnull align 8 dereferenceable(217) %2) #0 align 2 {
  %4 = alloca ptr, align 8
  %5 = alloca ptr, align 8
  %6 = alloca ptr, align 8
  %7 = alloca i16, align 2
  %8 = alloca i16, align 2
  %9 = alloca i16, align 2
  store ptr %0, ptr %4, align 8, !tbaa !7
  store ptr %1, ptr %5, align 8, !tbaa !51
  store ptr %2, ptr %6, align 8, !tbaa !53
  %10 = load ptr, ptr %4, align 8
  %11 = getelementptr inbounds nuw %"class.icu_77::number::impl::Grouper", ptr %10, i32 0, i32 2
  %12 = load i16, ptr %11, align 4, !tbaa !15
  %13 = sext i16 %12 to i32
  %14 = icmp eq i32 %13, -2
  br i1 %14, label %15, label %19

15:                                               ; preds = %3
  %16 = load ptr, ptr %6, align 8, !tbaa !53
  %17 = call noundef signext i16 @_ZN12_GLOBAL__N_123getMinGroupingForLocaleERKN6icu_776LocaleE(ptr noundef nonnull align 8 dereferenceable(217) %16)
  %18 = getelementptr inbounds nuw %"class.icu_77::number::impl::Grouper", ptr %10, i32 0, i32 2
  store i16 %17, ptr %18, align 4, !tbaa !15
  br label %33

19:                                               ; preds = %3
  %20 = getelementptr inbounds nuw %"class.icu_77::number::impl::Grouper", ptr %10, i32 0, i32 2
  %21 = load i16, ptr %20, align 4, !tbaa !15
  %22 = sext i16 %21 to i32
  %23 = icmp eq i32 %22, -3
  br i1 %23, label %24, label %31

24:                                               ; preds = %19
  %25 = load ptr, ptr %6, align 8, !tbaa !53
  %26 = call noundef signext i16 @_ZN12_GLOBAL__N_123getMinGroupingForLocaleERKN6icu_776LocaleE(ptr noundef nonnull align 8 dereferenceable(217) %25)
  %27 = sext i16 %26 to i32
  %28 = call i32 @uprv_max_77(i32 noundef 2, i32 noundef %27)
  %29 = trunc i32 %28 to i16
  %30 = getelementptr inbounds nuw %"class.icu_77::number::impl::Grouper", ptr %10, i32 0, i32 2
  store i16 %29, ptr %30, align 4, !tbaa !15
  br label %32

31:                                               ; preds = %19
  br label %32

32:                                               ; preds = %31, %24
  br label %33

33:                                               ; preds = %32, %15
  %34 = getelementptr inbounds nuw %"class.icu_77::number::impl::Grouper", ptr %10, i32 0, i32 0
  %35 = load i16, ptr %34, align 4, !tbaa !12
  %36 = sext i16 %35 to i32
  %37 = icmp ne i32 %36, -2
  br i1 %37, label %38, label %44

38:                                               ; preds = %33
  %39 = getelementptr inbounds nuw %"class.icu_77::number::impl::Grouper", ptr %10, i32 0, i32 1
  %40 = load i16, ptr %39, align 2, !tbaa !14
  %41 = sext i16 %40 to i32
  %42 = icmp ne i32 %41, -4
  br i1 %42, label %43, label %44

43:                                               ; preds = %38
  br label %85

44:                                               ; preds = %38, %33
  call void @llvm.lifetime.start.p0(i64 2, ptr %7) #9
  %45 = load ptr, ptr %5, align 8, !tbaa !51
  %46 = getelementptr inbounds nuw %"struct.icu_77::number::impl::ParsedPatternInfo", ptr %45, i32 0, i32 2
  %47 = getelementptr inbounds nuw %"struct.icu_77::number::impl::ParsedSubpatternInfo", ptr %46, i32 0, i32 0
  %48 = load i64, ptr %47, align 8, !tbaa !55
  %49 = and i64 %48, 65535
  %50 = trunc i64 %49 to i16
  store i16 %50, ptr %7, align 2, !tbaa !10
  call void @llvm.lifetime.start.p0(i64 2, ptr %8) #9
  %51 = load ptr, ptr %5, align 8, !tbaa !51
  %52 = getelementptr inbounds nuw %"struct.icu_77::number::impl::ParsedPatternInfo", ptr %51, i32 0, i32 2
  %53 = getelementptr inbounds nuw %"struct.icu_77::number::impl::ParsedSubpatternInfo", ptr %52, i32 0, i32 0
  %54 = load i64, ptr %53, align 8, !tbaa !55
  %55 = lshr i64 %54, 16
  %56 = and i64 %55, 65535
  %57 = trunc i64 %56 to i16
  store i16 %57, ptr %8, align 2, !tbaa !10
  call void @llvm.lifetime.start.p0(i64 2, ptr %9) #9
  %58 = load ptr, ptr %5, align 8, !tbaa !51
  %59 = getelementptr inbounds nuw %"struct.icu_77::number::impl::ParsedPatternInfo", ptr %58, i32 0, i32 2
  %60 = getelementptr inbounds nuw %"struct.icu_77::number::impl::ParsedSubpatternInfo", ptr %59, i32 0, i32 0
  %61 = load i64, ptr %60, align 8, !tbaa !55
  %62 = lshr i64 %61, 32
  %63 = and i64 %62, 65535
  %64 = trunc i64 %63 to i16
  store i16 %64, ptr %9, align 2, !tbaa !10
  %65 = load i16, ptr %8, align 2, !tbaa !10
  %66 = sext i16 %65 to i32
  %67 = icmp eq i32 %66, -1
  br i1 %67, label %68, label %74

68:                                               ; preds = %44
  %69 = getelementptr inbounds nuw %"class.icu_77::number::impl::Grouper", ptr %10, i32 0, i32 0
  %70 = load i16, ptr %69, align 4, !tbaa !12
  %71 = sext i16 %70 to i32
  %72 = icmp eq i32 %71, -4
  %73 = select i1 %72, i16 3, i16 -1
  store i16 %73, ptr %7, align 2, !tbaa !10
  br label %74

74:                                               ; preds = %68, %44
  %75 = load i16, ptr %9, align 2, !tbaa !10
  %76 = sext i16 %75 to i32
  %77 = icmp eq i32 %76, -1
  br i1 %77, label %78, label %80

78:                                               ; preds = %74
  %79 = load i16, ptr %7, align 2, !tbaa !10
  store i16 %79, ptr %8, align 2, !tbaa !10
  br label %80

80:                                               ; preds = %78, %74
  %81 = load i16, ptr %7, align 2, !tbaa !10
  %82 = getelementptr inbounds nuw %"class.icu_77::number::impl::Grouper", ptr %10, i32 0, i32 0
  store i16 %81, ptr %82, align 4, !tbaa !12
  %83 = load i16, ptr %8, align 2, !tbaa !10
  %84 = getelementptr inbounds nuw %"class.icu_77::number::impl::Grouper", ptr %10, i32 0, i32 1
  store i16 %83, ptr %84, align 2, !tbaa !14
  call void @llvm.lifetime.end.p0(i64 2, ptr %9) #9
  call void @llvm.lifetime.end.p0(i64 2, ptr %8) #9
  call void @llvm.lifetime.end.p0(i64 2, ptr %7) #9
  br label %85

85:                                               ; preds = %80, %43
  ret void
}