; Function Attrs: mustprogress uwtable
define void @_ZN6icu_776number4impl7Grouper13setLocaleDataERKNS1_17ParsedPatternInfoERKNS_6LocaleE(ptr noundef nonnull align 4 captures(none) dereferenceable(12) %0, ptr noundef nonnull readonly align 8 captures(none) dereferenceable(433) %1, ptr noundef nonnull readonly align 8 captures(none) dereferenceable(217) %2) local_unnamed_addr #4 align 2 {
  %4 = getelementptr inbounds nuw i8, ptr %0, i64 4
  %5 = load i16, ptr %4, align 4, !tbaa !39
  switch i16 %5, label %15 [
    i16 -2, label %6
    i16 -3, label %9
  ]

6:                                                ; preds = %3
  %7 = getelementptr inbounds nuw i8, ptr %2, i64 40
  %.val = load ptr, ptr %7, align 8, !tbaa !42
  %8 = tail call fastcc noundef signext i16 @_ZN12_GLOBAL__N_123getMinGroupingForLocaleERKN6icu_776LocaleE(ptr %.val)
  br label %.sink.split

9:                                                ; preds = %3
  %10 = getelementptr inbounds nuw i8, ptr %2, i64 40
  %.val15 = load ptr, ptr %10, align 8, !tbaa !42
  %11 = tail call fastcc noundef signext i16 @_ZN12_GLOBAL__N_123getMinGroupingForLocaleERKN6icu_776LocaleE(ptr %.val15)
  %12 = sext i16 %11 to i32
  %13 = tail call i32 @uprv_max_77(i32 noundef 2, i32 noundef %12)
  %14 = trunc i32 %13 to i16
  br label %.sink.split

.sink.split:                                      ; preds = %6, %9
  %.sink = phi i16 [ %14, %9 ], [ %8, %6 ]
  store i16 %.sink, ptr %4, align 4, !tbaa !39
  br label %15

15:                                               ; preds = %.sink.split, %3
  %16 = load i16, ptr %0, align 4, !tbaa !45
  %.not = icmp eq i16 %16, -2
  %17 = getelementptr inbounds nuw i8, ptr %0, i64 2
  %18 = load i16, ptr %17, align 2
  %.not12 = icmp eq i16 %18, -4
  %or.cond = select i1 %.not, i1 true, i1 %.not12
  br i1 %or.cond, label %19, label %30

19:                                               ; preds = %15
  %20 = getelementptr inbounds nuw i8, ptr %1, i64 72
  %21 = load i64, ptr %20, align 8, !tbaa !46
  %22 = trunc i64 %21 to i16
  %23 = lshr i64 %21, 16
  %24 = trunc i64 %23 to i16
  %25 = icmp eq i16 %24, -1
  %26 = icmp eq i16 %16, -4
  %27 = select i1 %26, i16 3, i16 -1
  %.0 = select i1 %25, i16 %27, i16 %22
  %28 = and i64 %21, 281470681743360
  %29 = icmp eq i64 %28, 281470681743360
  %.010 = select i1 %29, i16 %.0, i16 %24
  store i16 %.0, ptr %0, align 4, !tbaa !45
  store i16 %.010, ptr %17, align 2, !tbaa !57
  br label %30

30:                                               ; preds = %15, %19
  ret void
}